; ModuleID = '42/1495.c'
source_filename = "42/1495.c"
target datalayout = "e-m:e-p270:32:32-p271:32:32-p272:64:64-i64:64-f80:128-n8:16:32:64-S128"
target triple = "x86_64-pc-linux-gnu"

@.str = private unnamed_addr constant [3 x i8] c"%d\00", align 1
@.str.1 = private unnamed_addr constant [4 x i8] c" %d\00", align 1

; Function Attrs: noinline nounwind uwtable
define dso_local i32 @main() #0 {
  %1 = alloca i32, align 4
  %2 = alloca i32, align 4
  %3 = alloca i32, align 4
  %4 = alloca i32, align 4
  %5 = alloca i32, align 4
  %6 = alloca i32, align 4
  %7 = alloca i32, align 4
  %8 = alloca i32, align 4
  %9 = alloca i32, align 4
  %10 = alloca i32, align 4
  %11 = alloca [1000000 x i32], align 16
  store i32 0, i32* %1, align 4
  %12 = call i32 (i8*, ...) @__isoc99_scanf(i8* getelementptr inbounds ([3 x i8], [3 x i8]* @.str, i64 0, i64 0), i32* %6)
  store i32 1, i32* %3, align 4
  br label %13

13:                                               ; preds = %22, %0
  %14 = load i32, i32* %3, align 4
  %15 = load i32, i32* %6, align 4
  %16 = icmp sle i32 %14, %15
  br i1 %16, label %17, label %25

17:                                               ; preds = %13
  %18 = load i32, i32* %3, align 4
  %19 = sext i32 %18 to i64
  %20 = getelementptr inbounds [1000000 x i32], [1000000 x i32]* %11, i64 0, i64 %19
  %21 = call i32 (i8*, ...) @__isoc99_scanf(i8* getelementptr inbounds ([3 x i8], [3 x i8]* @.str, i64 0, i64 0), i32* %20)
  br label %22

22:                                               ; preds = %17
  %23 = load i32, i32* %3, align 4
  %24 = add nsw i32 %23, 1
  store i32 %24, i32* %3, align 4
  br label %13

25:                                               ; preds = %13
  %26 = call i32 (i8*, ...) @__isoc99_scanf(i8* getelementptr inbounds ([3 x i8], [3 x i8]* @.str, i64 0, i64 0), i32* %2)
  store i32 1, i32* %9, align 4
  br label %27

27:                                               ; preds = %45, %25
  %28 = load i32, i32* %9, align 4
  %29 = load i32, i32* %6, align 4
  %30 = icmp sle i32 %28, %29
  br i1 %30, label %31, label %48

31:                                               ; preds = %27
  %32 = load i32, i32* %9, align 4
  %33 = sext i32 %32 to i64
  %34 = getelementptr inbounds [1000000 x i32], [1000000 x i32]* %11, i64 0, i64 %33
  %35 = load i32, i32* %34, align 4
  %36 = load i32, i32* %2, align 4
  %37 = icmp ne i32 %35, %36
  br i1 %37, label %38, label %44

38:                                               ; preds = %31
  %39 = load i32, i32* %9, align 4
  %40 = sext i32 %39 to i64
  %41 = getelementptr inbounds [1000000 x i32], [1000000 x i32]* %11, i64 0, i64 %40
  %42 = load i32, i32* %41, align 4
  %43 = call i32 (i8*, ...) @printf(i8* getelementptr inbounds ([3 x i8], [3 x i8]* @.str, i64 0, i64 0), i32 %42)
  br label %48

44:                                               ; preds = %31
  br label %45

45:                                               ; preds = %44
  %46 = load i32, i32* %9, align 4
  %47 = add nsw i32 %46, 1
  store i32 %47, i32* %9, align 4
  br label %27

48:                                               ; preds = %38, %27
  %49 = load i32, i32* %9, align 4
  %50 = add nsw i32 %49, 1
  store i32 %50, i32* %8, align 4
  br label %51

51:                                               ; preds = %69, %48
  %52 = load i32, i32* %8, align 4
  %53 = load i32, i32* %6, align 4
  %54 = icmp sle i32 %52, %53
  br i1 %54, label %55, label %72

55:                                               ; preds = %51
  %56 = load i32, i32* %8, align 4
  %57 = sext i32 %56 to i64
  %58 = getelementptr inbounds [1000000 x i32], [1000000 x i32]* %11, i64 0, i64 %57
  %59 = load i32, i32* %58, align 4
  %60 = load i32, i32* %2, align 4
  %61 = icmp ne i32 %59, %60
  br i1 %61, label %62, label %68

62:                                               ; preds = %55
  %63 = load i32, i32* %8, align 4
  %64 = sext i32 %63 to i64
  %65 = getelementptr inbounds [1000000 x i32], [1000000 x i32]* %11, i64 0, i64 %64
  %66 = load i32, i32* %65, align 4
  %67 = call i32 (i8*, ...) @printf(i8* getelementptr inbounds ([4 x i8], [4 x i8]* @.str.1, i64 0, i64 0), i32 %66)
  br label %68

68:                                               ; preds = %62, %55
  br label %69

69:                                               ; preds = %68
  %70 = load i32, i32* %8, align 4
  %71 = add nsw i32 %70, 1
  store i32 %71, i32* %8, align 4
  br label %51

72:                                               ; preds = %51
  ret i32 0
}

declare dso_local i32 @__isoc99_scanf(i8*, ...) #1

declare dso_local i32 @printf(i8*, ...) #1


!llvm.module.flags = !{!0}
!llvm.ident = !{!1}

!0 = !{i32 1, !"wchar_size", i32 4}
!1 = !{!"clang version 10.0.0-4ubuntu1 "}
