; ModuleID = 'source-C-CXX/41/1495.c'
source_filename = "source-C-CXX/41/1495.c"
target datalayout = "e-m:e-p270:32:32-p271:32:32-p272:64:64-i64:64-f80:128-n8:16:32:64-S128"
target triple = "x86_64-pc-linux-gnu"

@.str = private unnamed_addr constant [3 x i8] c"%d\00", align 1
@.str.1 = private unnamed_addr constant [4 x i8] c" %d\00", align 1

; Function Attrs: nofree nounwind sspstrong uwtable
define dso_local i32 @main() local_unnamed_addr #0 {
  %1 = alloca i32, align 4
  %2 = alloca i32, align 4
  %3 = alloca [1000000 x i32], align 16
  %4 = bitcast i32* %1 to i8*
  call void @llvm.lifetime.start.p0i8(i64 4, i8* nonnull %4) #3
  %5 = bitcast i32* %2 to i8*
  call void @llvm.lifetime.start.p0i8(i64 4, i8* nonnull %5) #3
  %6 = bitcast [1000000 x i32]* %3 to i8*
  call void @llvm.lifetime.start.p0i8(i64 4000000, i8* nonnull %6) #3
  %7 = call i32 (i8*, ...) @__isoc99_scanf(i8* getelementptr inbounds ([3 x i8], [3 x i8]* @.str, i64 0, i64 0), i32* nonnull %2)
  %8 = load i32, i32* %2, align 4, !tbaa !5
  %9 = icmp slt i32 %8, 1
  br i1 %9, label %18, label %10

10:                                               ; preds = %0, %10
  %11 = phi i64 [ %14, %10 ], [ 1, %0 ]
  %12 = getelementptr inbounds [1000000 x i32], [1000000 x i32]* %3, i64 0, i64 %11
  %13 = call i32 (i8*, ...) @__isoc99_scanf(i8* getelementptr inbounds ([3 x i8], [3 x i8]* @.str, i64 0, i64 0), i32* nonnull %12)
  %14 = add nuw nsw i64 %11, 1
  %15 = load i32, i32* %2, align 4, !tbaa !5
  %16 = sext i32 %15 to i64
  %17 = icmp slt i64 %11, %16
  br i1 %17, label %10, label %18, !llvm.loop !9

18:                                               ; preds = %10, %0
  %19 = call i32 (i8*, ...) @__isoc99_scanf(i8* getelementptr inbounds ([3 x i8], [3 x i8]* @.str, i64 0, i64 0), i32* nonnull %1)
  %20 = load i32, i32* %2, align 4, !tbaa !5
  %21 = load i32, i32* %1, align 4
  %22 = icmp slt i32 %20, 1
  br i1 %22, label %39, label %23

23:                                               ; preds = %18
  %24 = add nuw i32 %20, 1
  %25 = add nuw i32 %20, 1
  %26 = zext i32 %25 to i64
  br label %27

27:                                               ; preds = %23, %36
  %28 = phi i64 [ 1, %23 ], [ %37, %36 ]
  %29 = getelementptr inbounds [1000000 x i32], [1000000 x i32]* %3, i64 0, i64 %28
  %30 = load i32, i32* %29, align 4, !tbaa !5
  %31 = icmp eq i32 %30, %21
  br i1 %31, label %36, label %32

32:                                               ; preds = %27
  %33 = trunc i64 %28 to i32
  %34 = call i32 (i8*, ...) @printf(i8* nonnull dereferenceable(1) getelementptr inbounds ([3 x i8], [3 x i8]* @.str, i64 0, i64 0), i32 %30)
  %35 = load i32, i32* %2, align 4, !tbaa !5
  br label %39

36:                                               ; preds = %27
  %37 = add nuw nsw i64 %28, 1
  %38 = icmp eq i64 %37, %26
  br i1 %38, label %39, label %27, !llvm.loop !11

39:                                               ; preds = %36, %18, %32
  %40 = phi i32 [ %35, %32 ], [ %20, %18 ], [ %20, %36 ]
  %41 = phi i32 [ %33, %32 ], [ 1, %18 ], [ %24, %36 ]
  %42 = icmp slt i32 %41, %40
  br i1 %42, label %43, label %60

43:                                               ; preds = %39
  %44 = zext i32 %41 to i64
  br label %45

45:                                               ; preds = %43, %56
  %46 = phi i32 [ %40, %43 ], [ %57, %56 ]
  %47 = phi i64 [ %44, %43 ], [ %48, %56 ]
  %48 = add nuw nsw i64 %47, 1
  %49 = getelementptr inbounds [1000000 x i32], [1000000 x i32]* %3, i64 0, i64 %48
  %50 = load i32, i32* %49, align 4, !tbaa !5
  %51 = load i32, i32* %1, align 4, !tbaa !5
  %52 = icmp eq i32 %50, %51
  br i1 %52, label %56, label %53

53:                                               ; preds = %45
  %54 = call i32 (i8*, ...) @printf(i8* nonnull dereferenceable(1) getelementptr inbounds ([4 x i8], [4 x i8]* @.str.1, i64 0, i64 0), i32 %50)
  %55 = load i32, i32* %2, align 4, !tbaa !5
  br label %56

56:                                               ; preds = %45, %53
  %57 = phi i32 [ %46, %45 ], [ %55, %53 ]
  %58 = trunc i64 %48 to i32
  %59 = icmp sgt i32 %57, %58
  br i1 %59, label %45, label %60, !llvm.loop !12

60:                                               ; preds = %56, %39
  call void @llvm.lifetime.end.p0i8(i64 4000000, i8* nonnull %6) #3
  call void @llvm.lifetime.end.p0i8(i64 4, i8* nonnull %5) #3
  call void @llvm.lifetime.end.p0i8(i64 4, i8* nonnull %4) #3
  ret i32 0
}

; Function Attrs: argmemonly mustprogress nofree nosync nounwind willreturn
declare void @llvm.lifetime.start.p0i8(i64 immarg, i8* nocapture) #1

; Function Attrs: nofree nounwind
declare noundef i32 @__isoc99_scanf(i8* nocapture noundef readonly, ...) local_unnamed_addr #2

; Function Attrs: nofree nounwind
declare noundef i32 @printf(i8* nocapture noundef readonly, ...) local_unnamed_addr #2

; Function Attrs: argmemonly mustprogress nofree nosync nounwind willreturn
declare void @llvm.lifetime.end.p0i8(i64 immarg, i8* nocapture) #1


!llvm.module.flags = !{!0, !1, !2, !3}
!llvm.ident = !{!4}

!0 = !{i32 1, !"wchar_size", i32 4}
!1 = !{i32 7, !"PIC Level", i32 2}
!2 = !{i32 7, !"PIE Level", i32 2}
!3 = !{i32 7, !"uwtable", i32 1}
!4 = !{!"clang version 13.0.0"}
!5 = !{!6, !6, i64 0}
!6 = !{!"int", !7, i64 0}
!7 = !{!"omnipotent char", !8, i64 0}
!8 = !{!"Simple C/C++ TBAA"}
!9 = distinct !{!9, !10}
!10 = !{!"llvm.loop.mustprogress"}
!11 = distinct !{!11, !10}
!12 = distinct !{!12, !10}
